; Function Attrs: nounwind uwtable
define internal ptr @mapping_setitemstring(ptr readnone captures(none) %0, ptr noundef %1) #0 {
  %3 = alloca ptr, align 8
  %4 = alloca ptr, align 8
  %5 = alloca ptr, align 8
  %6 = alloca i64, align 8
  call void @llvm.lifetime.start.p0(i64 8, ptr nonnull %3) #4
  call void @llvm.lifetime.start.p0(i64 8, ptr nonnull %4) #4
  call void @llvm.lifetime.start.p0(i64 8, ptr nonnull %5) #4
  call void @llvm.lifetime.start.p0(i64 8, ptr nonnull %6) #4
  %7 = call i32 (ptr, ptr, ...) @PyArg_ParseTuple(ptr noundef %1, ptr noundef nonnull @.str.54, ptr noundef nonnull %3, ptr noundef nonnull %5, ptr noundef nonnull %6, ptr noundef nonnull %4) #4
  %.not = icmp eq i32 %7, 0
  br i1 %.not, label %30, label %8

8:                                                ; preds = %2
  %9 = load ptr, ptr %3, align 8, !tbaa !3
  %10 = icmp eq ptr %9, @_Py_NoneStruct
  br i1 %10, label %11, label %12

11:                                               ; preds = %8
  store ptr null, ptr %3, align 8, !tbaa !3
  br label %12

12:                                               ; preds = %8, %11
  %13 = phi ptr [ %9, %8 ], [ null, %11 ]
  %14 = load ptr, ptr %4, align 8, !tbaa !3
  %15 = icmp eq ptr %14, @_Py_NoneStruct
  br i1 %15, label %16, label %17

16:                                               ; preds = %12
  store ptr null, ptr %4, align 8, !tbaa !3
  br label %17

17:                                               ; preds = %12, %16
  %18 = phi ptr [ %14, %12 ], [ null, %16 ]
  %19 = load ptr, ptr %5, align 8, !tbaa !8
  %20 = call i32 @PyMapping_SetItemString(ptr noundef %13, ptr noundef %19, ptr noundef %18) #4
  %21 = icmp eq i32 %20, -1
  %22 = call ptr @PyErr_Occurred() #4
  %.not5 = icmp eq ptr %22, null
  br i1 %21, label %23, label %25

23:                                               ; preds = %17
  br i1 %.not5, label %24, label %30

24:                                               ; preds = %23
  call void @__assert_fail(ptr noundef nonnull @.str.51, ptr noundef nonnull @.str.52, i32 noundef 262, ptr noundef nonnull @__PRETTY_FUNCTION__.mapping_setitemstring) #5
  unreachable

25:                                               ; preds = %17
  br i1 %.not5, label %27, label %26

26:                                               ; preds = %25
  call void @__assert_fail(ptr noundef nonnull @.str.53, ptr noundef nonnull @.str.52, i32 noundef 262, ptr noundef nonnull @__PRETTY_FUNCTION__.mapping_setitemstring) #5
  unreachable

27:                                               ; preds = %25
  %28 = sext i32 %20 to i64
  %29 = call ptr @PyLong_FromLong(i64 noundef %28) #4
  br label %30

30:                                               ; preds = %27, %23, %2
  %.0 = phi ptr [ null, %2 ], [ %29, %27 ], [ null, %23 ]
  call void @llvm.lifetime.end.p0(i64 8, ptr nonnull %6) #4
  call void @llvm.lifetime.end.p0(i64 8, ptr nonnull %5) #4
  call void @llvm.lifetime.end.p0(i64 8, ptr nonnull %4) #4
  call void @llvm.lifetime.end.p0(i64 8, ptr nonnull %3) #4
  ret ptr %.0
}